; Function Attrs: nofree norecurse nosync nounwind memory(argmem: readwrite) uwtable
define internal void @put_rv40_qpel16_mc01_c(ptr noundef writeonly captures(none) %0, ptr noundef readonly captures(none) %1, i64 noundef %2) #3 {
  %4 = trunc i64 %2 to i32
  tail call fastcc void @put_rv40_qpel8_v_lowpass(ptr noundef %0, ptr noundef readonly %1, i32 noundef %4, i32 noundef %4, i32 noundef 52, i32 noundef 20, i32 noundef 6)
  %5 = getelementptr inbounds nuw i8, ptr %0, i64 8
  %6 = getelementptr inbounds nuw i8, ptr %1, i64 8
  tail call fastcc void @put_rv40_qpel8_v_lowpass(ptr noundef nonnull %5, ptr noundef nonnull readonly %6, i32 noundef %4, i32 noundef %4, i32 noundef 52, i32 noundef 20, i32 noundef 6)
  %7 = shl nsw i32 %4, 3
  %8 = sext i32 %7 to i64
  %9 = getelementptr inbounds i8, ptr %1, i64 %8
  %10 = getelementptr inbounds i8, ptr %0, i64 %8
  tail call fastcc void @put_rv40_qpel8_v_lowpass(ptr noundef %10, ptr noundef readonly %9, i32 noundef %4, i32 noundef %4, i32 noundef 52, i32 noundef 20, i32 noundef 6)
  %11 = getelementptr inbounds nuw i8, ptr %10, i64 8
  %12 = getelementptr inbounds nuw i8, ptr %9, i64 8
  tail call fastcc void @put_rv40_qpel8_v_lowpass(ptr noundef nonnull %11, ptr noundef nonnull readonly %12, i32 noundef %4, i32 noundef %4, i32 noundef 52, i32 noundef 20, i32 noundef 6)
  ret void
}